target datalayout = "e-m:e-p270:32:32-p271:32:32-p272:64:64-i64:64-i128:128-f80:128-n8:16:32:64-S128"
target triple = "x86_64-unknown-linux-gnu"

%struct.QIODNSResolverLookupData = type { ptr, ptr, i64 }

; Function Attrs: nounwind sspstrong uwtable
define dso_local void @qio_dns_resolver_lookup_result(ptr noundef %resolver, ptr noundef %task, ptr noundef %naddrs, ptr noundef %addrs) #0 {
entry:
  %resolver.addr = alloca ptr, align 8
  %task.addr = alloca ptr, align 8
  %naddrs.addr = alloca ptr, align 8
  %addrs.addr = alloca ptr, align 8
  %data = alloca ptr, align 8
  %i = alloca i64, align 8
  store ptr %resolver, ptr %resolver.addr, align 8
  store ptr %task, ptr %task.addr, align 8
  store ptr %naddrs, ptr %naddrs.addr, align 8
  store ptr %addrs, ptr %addrs.addr, align 8
  %0 = load ptr, ptr %task.addr, align 8
  %call = call ptr @qio_task_get_result_pointer(ptr noundef %0)
  store ptr %call, ptr %data, align 8
  %1 = load ptr, ptr %naddrs.addr, align 8
  store i64 0, ptr %1, align 8
  %2 = load ptr, ptr %addrs.addr, align 8
  store ptr null, ptr %2, align 8
  %3 = load ptr, ptr %data, align 8
  %tobool = icmp ne ptr %3, null
  br i1 %tobool, label %if.end, label %if.then

if.then:                                          ; preds = %entry
  br label %for.end

if.end:                                           ; preds = %entry
  %4 = load ptr, ptr %data, align 8
  %naddrs1 = getelementptr inbounds %struct.QIODNSResolverLookupData, ptr %4, i32 0, i32 2
  %5 = load i64, ptr %naddrs1, align 8
  %6 = load ptr, ptr %naddrs.addr, align 8
  store i64 %5, ptr %6, align 8
  %7 = load ptr, ptr %data, align 8
  %naddrs2 = getelementptr inbounds %struct.QIODNSResolverLookupData, ptr %7, i32 0, i32 2
  %8 = load i64, ptr %naddrs2, align 8
  %call3 = call noalias ptr @g_malloc0_n(i64 noundef %8, i64 noundef 8) #11
  %9 = load ptr, ptr %addrs.addr, align 8
  store ptr %call3, ptr %9, align 8
  store i64 0, ptr %i, align 8
  br label %for.cond

for.cond:                                         ; preds = %for.inc, %if.end
  %10 = load i64, ptr %i, align 8
  %11 = load ptr, ptr %data, align 8
  %naddrs4 = getelementptr inbounds %struct.QIODNSResolverLookupData, ptr %11, i32 0, i32 2
  %12 = load i64, ptr %naddrs4, align 8
  %cmp = icmp ult i64 %10, %12
  br i1 %cmp, label %for.body, label %for.end

for.body:                                         ; preds = %for.cond
  %13 = load ptr, ptr %data, align 8
  %addrs5 = getelementptr inbounds %struct.QIODNSResolverLookupData, ptr %13, i32 0, i32 1
  %14 = load ptr, ptr %addrs5, align 8
  %15 = load i64, ptr %i, align 8
  %arrayidx = getelementptr ptr, ptr %14, i64 %15
  %16 = load ptr, ptr %arrayidx, align 8
  %call6 = call ptr @qapi_clone(ptr noundef %16, ptr noundef @visit_type_SocketAddress)
  %17 = load ptr, ptr %addrs.addr, align 8
  %18 = load ptr, ptr %17, align 8
  %19 = load i64, ptr %i, align 8
  %arrayidx7 = getelementptr ptr, ptr %18, i64 %19
  store ptr %call6, ptr %arrayidx7, align 8
  br label %for.inc

for.inc:                                          ; preds = %for.body
  %20 = load i64, ptr %i, align 8
  %inc = add i64 %20, 1
  store i64 %inc, ptr %i, align 8
  br label %for.cond, !llvm.loop !9

for.end:                                          ; preds = %for.cond, %if.then
  ret void
}