; Function Attrs: nounwind sspstrong uwtable
define dso_local void @qio_dns_resolver_lookup_result(ptr noundef readnone captures(none) %resolver, ptr noundef %task, ptr noundef writeonly captures(none) initializes((0, 8)) %naddrs, ptr noundef captures(none) initializes((0, 8)) %addrs) local_unnamed_addr #0 {
entry:
  %call = tail call ptr @qio_task_get_result_pointer(ptr noundef %task) #7
  store i64 0, ptr %naddrs, align 8
  store ptr null, ptr %addrs, align 8
  %tobool.not = icmp eq ptr %call, null
  br i1 %tobool.not, label %for.end, label %if.end

if.end:                                           ; preds = %entry
  %naddrs1 = getelementptr inbounds nuw i8, ptr %call, i64 16
  %0 = load i64, ptr %naddrs1, align 8
  store i64 %0, ptr %naddrs, align 8
  %call3 = tail call noalias ptr @g_malloc0_n(i64 noundef %0, i64 noundef 8) #8
  store ptr %call3, ptr %addrs, align 8
  %1 = load i64, ptr %naddrs1, align 8
  %cmp11.not = icmp eq i64 %1, 0
  br i1 %cmp11.not, label %for.end, label %for.body.lr.ph

for.body.lr.ph:                                   ; preds = %if.end
  %addrs5 = getelementptr inbounds nuw i8, ptr %call, i64 8
  br label %for.body

for.body:                                         ; preds = %for.body.lr.ph, %for.body
  %i.012 = phi i64 [ 0, %for.body.lr.ph ], [ %inc, %for.body ]
  %2 = load ptr, ptr %addrs5, align 8
  %arrayidx = getelementptr ptr, ptr %2, i64 %i.012
  %3 = load ptr, ptr %arrayidx, align 8
  %call6 = tail call ptr @qapi_clone(ptr noundef %3, ptr noundef nonnull @visit_type_SocketAddress) #7
  %4 = load ptr, ptr %addrs, align 8
  %arrayidx7 = getelementptr ptr, ptr %4, i64 %i.012
  store ptr %call6, ptr %arrayidx7, align 8
  %inc = add nuw i64 %i.012, 1
  %5 = load i64, ptr %naddrs1, align 8
  %cmp = icmp ult i64 %inc, %5
  br i1 %cmp, label %for.body, label %for.end, !llvm.loop !9

for.end:                                          ; preds = %for.body, %if.end, %entry
  ret void
}